; Function Attrs: nofree nounwind uwtable
define i32 @Kit_DsdNonDsdSupports(ptr noundef captures(none) initializes((16, 24)) %0) local_unnamed_addr #10 {
  %2 = getelementptr inbounds nuw i8, ptr %0, i64 4
  %3 = load i16, ptr %2, align 4, !tbaa !38
  %4 = zext i16 %3 to i64
  %5 = shl nuw nsw i64 %4, 2
  %6 = tail call noalias ptr @malloc(i64 noundef %5) #26
  %7 = getelementptr inbounds nuw i8, ptr %0, i64 16
  store ptr %6, ptr %7, align 8, !tbaa !45
  %8 = getelementptr inbounds nuw i8, ptr %0, i64 6
  %9 = load i16, ptr %8, align 2, !tbaa !51
  %10 = lshr i16 %9, 1
  %11 = load i16, ptr %0, align 8, !tbaa !34
  %12 = icmp ult i16 %10, %11
  br i1 %12, label %Kit_DsdNtkRoot.exit.i, label %13

13:                                               ; preds = %1
  %14 = getelementptr inbounds nuw i8, ptr %0, i64 24
  %15 = load ptr, ptr %14, align 8, !tbaa !40
  %narrow.i.i = sub nuw nsw i16 %10, %11
  %16 = zext nneg i16 %narrow.i.i to i64
  %17 = getelementptr inbounds nuw ptr, ptr %15, i64 %16
  %18 = load ptr, ptr %17, align 8, !tbaa !41
  br label %Kit_DsdNtkRoot.exit.i

Kit_DsdNtkRoot.exit.i:                            ; preds = %13, %1
  %19 = phi ptr [ %18, %13 ], [ null, %1 ]
  %20 = load i32, ptr %19, align 4
  %21 = and i32 %20, 448
  %22 = icmp eq i32 %21, 64
  br i1 %22, label %23, label %24

23:                                               ; preds = %Kit_DsdNtkRoot.exit.i
  store i32 0, ptr %6, align 4, !tbaa !20
  %.pre.i = load i32, ptr %19, align 4
  br label %24

24:                                               ; preds = %23, %Kit_DsdNtkRoot.exit.i
  %25 = phi i32 [ %.pre.i, %23 ], [ %20, %Kit_DsdNtkRoot.exit.i ]
  %26 = and i32 %25, 448
  %27 = icmp eq i32 %26, 128
  br i1 %27, label %28, label %42

28:                                               ; preds = %24
  %29 = getelementptr inbounds nuw i8, ptr %19, i64 4
  %30 = load i16, ptr %29, align 4, !tbaa !49
  %31 = lshr i16 %30, 1
  %32 = zext nneg i16 %31 to i32
  %.not.i.i = icmp eq ptr %6, null
  br i1 %.not.i.i, label %Kit_DsdLitSupport.exit.i, label %33

33:                                               ; preds = %28
  %34 = icmp ult i16 %31, %11
  br i1 %34, label %35, label %37

35:                                               ; preds = %33
  %36 = shl nuw i32 1, %32
  br label %Kit_DsdLitSupport.exit.i

37:                                               ; preds = %33
  %narrow.i = sub nuw nsw i16 %31, %11
  %38 = zext nneg i16 %narrow.i to i64
  %39 = getelementptr inbounds nuw i32, ptr %6, i64 %38
  %40 = load i32, ptr %39, align 4, !tbaa !20
  br label %Kit_DsdLitSupport.exit.i

Kit_DsdLitSupport.exit.i:                         ; preds = %37, %35, %28
  %41 = phi i32 [ %36, %35 ], [ %40, %37 ], [ 0, %28 ]
  store i32 %41, ptr %6, align 4, !tbaa !20
  br label %Kit_DsdGetSupports.exit

42:                                               ; preds = %24
  %43 = zext i16 %9 to i32
  %44 = tail call i32 @Kit_DsdGetSupports_rec(ptr noundef nonnull %0, i32 noundef %43)
  %.pre = load i16, ptr %2, align 4, !tbaa !38
  br label %Kit_DsdGetSupports.exit

Kit_DsdGetSupports.exit:                          ; preds = %Kit_DsdLitSupport.exit.i, %42
  %45 = phi i16 [ %3, %Kit_DsdLitSupport.exit.i ], [ %.pre, %42 ]
  %.not17 = icmp eq i16 %45, 0
  br i1 %.not17, label %.critedge, label %.lr.ph

.lr.ph:                                           ; preds = %Kit_DsdGetSupports.exit
  %46 = getelementptr inbounds nuw i8, ptr %0, i64 24
  %47 = load ptr, ptr %46, align 8, !tbaa !40
  %wide.trip.count = zext i16 %45 to i64
  br label %48

48:                                               ; preds = %.lr.ph, %70
  %indvars.iv = phi i64 [ 0, %.lr.ph ], [ %indvars.iv.next, %70 ]
  %.014 = phi i32 [ 0, %.lr.ph ], [ %.1, %70 ]
  %49 = getelementptr inbounds nuw ptr, ptr %47, i64 %indvars.iv
  %50 = load ptr, ptr %49, align 8, !tbaa !41
  %.not = icmp eq ptr %50, null
  br i1 %.not, label %.critedge, label %51

51:                                               ; preds = %48
  %52 = load i32, ptr %50, align 4
  %53 = and i32 %52, 448
  %.not12 = icmp eq i32 %53, 320
  br i1 %.not12, label %54, label %70

54:                                               ; preds = %51
  %55 = and i32 %52, 63
  %56 = load ptr, ptr %7, align 8, !tbaa !45
  %.not.i = icmp eq ptr %56, null
  br i1 %.not.i, label %Kit_DsdLitSupport.exit, label %57

57:                                               ; preds = %54
  %58 = load i16, ptr %0, align 8, !tbaa !34
  %59 = zext i16 %58 to i32
  %60 = icmp samesign ult i32 %55, %59
  br i1 %60, label %61, label %63

61:                                               ; preds = %57
  %62 = shl nuw i32 1, %55
  br label %Kit_DsdLitSupport.exit

63:                                               ; preds = %57
  %64 = sub nuw nsw i32 %55, %59
  %65 = zext nneg i32 %64 to i64
  %66 = getelementptr inbounds nuw i32, ptr %56, i64 %65
  %67 = load i32, ptr %66, align 4, !tbaa !20
  br label %Kit_DsdLitSupport.exit

Kit_DsdLitSupport.exit:                           ; preds = %54, %61, %63
  %68 = phi i32 [ %62, %61 ], [ %67, %63 ], [ 0, %54 ]
  %69 = or i32 %68, %.014
  br label %70

70:                                               ; preds = %51, %Kit_DsdLitSupport.exit
  %.1 = phi i32 [ %.014, %51 ], [ %69, %Kit_DsdLitSupport.exit ]
  %indvars.iv.next = add nuw nsw i64 %indvars.iv, 1
  %exitcond.not = icmp eq i64 %indvars.iv.next, %wide.trip.count
  br i1 %exitcond.not, label %.critedge, label %48, !llvm.loop !90

.critedge:                                        ; preds = %48, %70, %Kit_DsdGetSupports.exit
  %.0.lcssa = phi i32 [ 0, %Kit_DsdGetSupports.exit ], [ %.1, %70 ], [ %.014, %48 ]
  ret i32 %.0.lcssa
}